; Function Attrs: mustprogress nounwind uwtable
define void @_ZN7testing8TestInfoD2Ev(ptr noundef nonnull align 8 dereferenceable(264) %0) unnamed_addr #5 align 2 personality ptr @__gxx_personality_v0 {
  %2 = getelementptr inbounds nuw i8, ptr %0, i64 136
  %3 = load ptr, ptr %2, align 8, !tbaa !628
  %4 = icmp eq ptr %3, null
  br i1 %4, label %9, label %5

5:                                                ; preds = %1
  %6 = load ptr, ptr %3, align 8, !tbaa !23
  %7 = getelementptr inbounds nuw i8, ptr %6, i64 8
  %8 = load ptr, ptr %7, align 8
  tail call void %8(ptr noundef nonnull align 8 dereferenceable(8) %3) #56
  br label %9

9:                                                ; preds = %5, %1
  %10 = getelementptr inbounds nuw i8, ptr %0, i64 144
  tail call void @_ZN7testing10TestResultD1Ev(ptr noundef nonnull align 8 dereferenceable(120) %10) #56
  %11 = getelementptr inbounds nuw i8, ptr %0, i64 80
  %12 = load ptr, ptr %11, align 8, !tbaa !3
  %13 = getelementptr inbounds nuw i8, ptr %0, i64 96
  %14 = icmp eq ptr %12, %13
  br i1 %14, label %_ZNKSt7__cxx1112basic_stringIcSt11char_traitsIcESaIcEE11_M_is_localEv.exit.thread.i.i.i, label %_ZNKSt7__cxx1112basic_stringIcSt11char_traitsIcESaIcEE11_M_is_localEv.exit.i.i.i

_ZNKSt7__cxx1112basic_stringIcSt11char_traitsIcESaIcEE11_M_is_localEv.exit.thread.i.i.i: ; preds = %9
  %15 = getelementptr inbounds nuw i8, ptr %0, i64 88
  %16 = load i64, ptr %15, align 8, !tbaa !11
  %17 = icmp ult i64 %16, 16
  tail call void @llvm.assume(i1 %17)
  br label %_ZN7testing8internal12CodeLocationD2Ev.exit

_ZNKSt7__cxx1112basic_stringIcSt11char_traitsIcESaIcEE11_M_is_localEv.exit.i.i.i: ; preds = %9
  tail call void @_ZdlPv(ptr noundef %12) #57
  br label %_ZN7testing8internal12CodeLocationD2Ev.exit

_ZN7testing8internal12CodeLocationD2Ev.exit:      ; preds = %_ZNKSt7__cxx1112basic_stringIcSt11char_traitsIcESaIcEE11_M_is_localEv.exit.thread.i.i.i, %_ZNKSt7__cxx1112basic_stringIcSt11char_traitsIcESaIcEE11_M_is_localEv.exit.i.i.i
  %18 = getelementptr inbounds nuw i8, ptr %0, i64 72
  %19 = load ptr, ptr %18, align 8, !tbaa !626
  %.not.i.i = icmp eq ptr %19, null
  br i1 %.not.i.i, label %_ZN7testing8internal10scoped_ptrIKNSt7__cxx1112basic_stringIcSt11char_traitsIcESaIcEEEED2Ev.exit, label %20

20:                                               ; preds = %_ZN7testing8internal12CodeLocationD2Ev.exit
  %21 = load ptr, ptr %19, align 8, !tbaa !3
  %22 = getelementptr inbounds nuw i8, ptr %19, i64 16
  %23 = icmp eq ptr %21, %22
  br i1 %23, label %_ZNKSt7__cxx1112basic_stringIcSt11char_traitsIcESaIcEE11_M_is_localEv.exit.thread.i.i.i.i, label %_ZNKSt7__cxx1112basic_stringIcSt11char_traitsIcESaIcEE11_M_is_localEv.exit.i.i.i.i

_ZNKSt7__cxx1112basic_stringIcSt11char_traitsIcESaIcEE11_M_is_localEv.exit.thread.i.i.i.i: ; preds = %20
  %24 = getelementptr inbounds nuw i8, ptr %19, i64 8
  %25 = load i64, ptr %24, align 8, !tbaa !11
  %26 = icmp ult i64 %25, 16
  tail call void @llvm.assume(i1 %26)
  br label %_ZNSt7__cxx1112basic_stringIcSt11char_traitsIcESaIcEED2Ev.exit.i.i

_ZNKSt7__cxx1112basic_stringIcSt11char_traitsIcESaIcEE11_M_is_localEv.exit.i.i.i.i: ; preds = %20
  tail call void @_ZdlPv(ptr noundef %21) #57
  br label %_ZNSt7__cxx1112basic_stringIcSt11char_traitsIcESaIcEED2Ev.exit.i.i

_ZNSt7__cxx1112basic_stringIcSt11char_traitsIcESaIcEED2Ev.exit.i.i: ; preds = %_ZNKSt7__cxx1112basic_stringIcSt11char_traitsIcESaIcEE11_M_is_localEv.exit.i.i.i.i, %_ZNKSt7__cxx1112basic_stringIcSt11char_traitsIcESaIcEE11_M_is_localEv.exit.thread.i.i.i.i
  tail call void @_ZdlPv(ptr noundef nonnull %19) #57
  store ptr null, ptr %18, align 8, !tbaa !626
  br label %_ZN7testing8internal10scoped_ptrIKNSt7__cxx1112basic_stringIcSt11char_traitsIcESaIcEEEED2Ev.exit

_ZN7testing8internal10scoped_ptrIKNSt7__cxx1112basic_stringIcSt11char_traitsIcESaIcEEEED2Ev.exit: ; preds = %_ZN7testing8internal12CodeLocationD2Ev.exit, %_ZNSt7__cxx1112basic_stringIcSt11char_traitsIcESaIcEED2Ev.exit.i.i
  %27 = getelementptr inbounds nuw i8, ptr %0, i64 64
  %28 = load ptr, ptr %27, align 8, !tbaa !626
  %.not.i.i1 = icmp eq ptr %28, null
  br i1 %.not.i.i1, label %_ZN7testing8internal10scoped_ptrIKNSt7__cxx1112basic_stringIcSt11char_traitsIcESaIcEEEED2Ev.exit5, label %29

29:                                               ; preds = %_ZN7testing8internal10scoped_ptrIKNSt7__cxx1112basic_stringIcSt11char_traitsIcESaIcEEEED2Ev.exit
  %30 = load ptr, ptr %28, align 8, !tbaa !3
  %31 = getelementptr inbounds nuw i8, ptr %28, i64 16
  %32 = icmp eq ptr %30, %31
  br i1 %32, label %_ZNKSt7__cxx1112basic_stringIcSt11char_traitsIcESaIcEE11_M_is_localEv.exit.thread.i.i.i.i4, label %_ZNKSt7__cxx1112basic_stringIcSt11char_traitsIcESaIcEE11_M_is_localEv.exit.i.i.i.i2

_ZNKSt7__cxx1112basic_stringIcSt11char_traitsIcESaIcEE11_M_is_localEv.exit.thread.i.i.i.i4: ; preds = %29
  %33 = getelementptr inbounds nuw i8, ptr %28, i64 8
  %34 = load i64, ptr %33, align 8, !tbaa !11
  %35 = icmp ult i64 %34, 16
  tail call void @llvm.assume(i1 %35)
  br label %_ZNSt7__cxx1112basic_stringIcSt11char_traitsIcESaIcEED2Ev.exit.i.i3

_ZNKSt7__cxx1112basic_stringIcSt11char_traitsIcESaIcEE11_M_is_localEv.exit.i.i.i.i2: ; preds = %29
  tail call void @_ZdlPv(ptr noundef %30) #57
  br label %_ZNSt7__cxx1112basic_stringIcSt11char_traitsIcESaIcEED2Ev.exit.i.i3

_ZNSt7__cxx1112basic_stringIcSt11char_traitsIcESaIcEED2Ev.exit.i.i3: ; preds = %_ZNKSt7__cxx1112basic_stringIcSt11char_traitsIcESaIcEE11_M_is_localEv.exit.i.i.i.i2, %_ZNKSt7__cxx1112basic_stringIcSt11char_traitsIcESaIcEE11_M_is_localEv.exit.thread.i.i.i.i4
  tail call void @_ZdlPv(ptr noundef nonnull %28) #57
  store ptr null, ptr %27, align 8, !tbaa !626
  br label %_ZN7testing8internal10scoped_ptrIKNSt7__cxx1112basic_stringIcSt11char_traitsIcESaIcEEEED2Ev.exit5

_ZN7testing8internal10scoped_ptrIKNSt7__cxx1112basic_stringIcSt11char_traitsIcESaIcEEEED2Ev.exit5: ; preds = %_ZN7testing8internal10scoped_ptrIKNSt7__cxx1112basic_stringIcSt11char_traitsIcESaIcEEEED2Ev.exit, %_ZNSt7__cxx1112basic_stringIcSt11char_traitsIcESaIcEED2Ev.exit.i.i3
  %36 = getelementptr inbounds nuw i8, ptr %0, i64 32
  %37 = load ptr, ptr %36, align 8, !tbaa !3
  %38 = getelementptr inbounds nuw i8, ptr %0, i64 48
  %39 = icmp eq ptr %37, %38
  br i1 %39, label %_ZNKSt7__cxx1112basic_stringIcSt11char_traitsIcESaIcEE11_M_is_localEv.exit.thread.i.i, label %_ZNKSt7__cxx1112basic_stringIcSt11char_traitsIcESaIcEE11_M_is_localEv.exit.i.i

_ZNKSt7__cxx1112basic_stringIcSt11char_traitsIcESaIcEE11_M_is_localEv.exit.thread.i.i: ; preds = %_ZN7testing8internal10scoped_ptrIKNSt7__cxx1112basic_stringIcSt11char_traitsIcESaIcEEEED2Ev.exit5
  %40 = getelementptr inbounds nuw i8, ptr %0, i64 40
  %41 = load i64, ptr %40, align 8, !tbaa !11
  %42 = icmp ult i64 %41, 16
  tail call void @llvm.assume(i1 %42)
  br label %_ZNSt7__cxx1112basic_stringIcSt11char_traitsIcESaIcEED2Ev.exit

_ZNKSt7__cxx1112basic_stringIcSt11char_traitsIcESaIcEE11_M_is_localEv.exit.i.i: ; preds = %_ZN7testing8internal10scoped_ptrIKNSt7__cxx1112basic_stringIcSt11char_traitsIcESaIcEEEED2Ev.exit5
  tail call void @_ZdlPv(ptr noundef %37) #57
  br label %_ZNSt7__cxx1112basic_stringIcSt11char_traitsIcESaIcEED2Ev.exit

_ZNSt7__cxx1112basic_stringIcSt11char_traitsIcESaIcEED2Ev.exit: ; preds = %_ZNKSt7__cxx1112basic_stringIcSt11char_traitsIcESaIcEE11_M_is_localEv.exit.thread.i.i, %_ZNKSt7__cxx1112basic_stringIcSt11char_traitsIcESaIcEE11_M_is_localEv.exit.i.i
  %43 = load ptr, ptr %0, align 8, !tbaa !3
  %44 = getelementptr inbounds nuw i8, ptr %0, i64 16
  %45 = icmp eq ptr %43, %44
  br i1 %45, label %_ZNKSt7__cxx1112basic_stringIcSt11char_traitsIcESaIcEE11_M_is_localEv.exit.thread.i.i7, label %_ZNKSt7__cxx1112basic_stringIcSt11char_traitsIcESaIcEE11_M_is_localEv.exit.i.i6

_ZNKSt7__cxx1112basic_stringIcSt11char_traitsIcESaIcEE11_M_is_localEv.exit.thread.i.i7: ; preds = %_ZNSt7__cxx1112basic_stringIcSt11char_traitsIcESaIcEED2Ev.exit
  %46 = getelementptr inbounds nuw i8, ptr %0, i64 8
  %47 = load i64, ptr %46, align 8, !tbaa !11
  %48 = icmp ult i64 %47, 16
  tail call void @llvm.assume(i1 %48)
  br label %_ZNSt7__cxx1112basic_stringIcSt11char_traitsIcESaIcEED2Ev.exit8

_ZNKSt7__cxx1112basic_stringIcSt11char_traitsIcESaIcEE11_M_is_localEv.exit.i.i6: ; preds = %_ZNSt7__cxx1112basic_stringIcSt11char_traitsIcESaIcEED2Ev.exit
  tail call void @_ZdlPv(ptr noundef %43) #57
  br label %_ZNSt7__cxx1112basic_stringIcSt11char_traitsIcESaIcEED2Ev.exit8

_ZNSt7__cxx1112basic_stringIcSt11char_traitsIcESaIcEED2Ev.exit8: ; preds = %_ZNKSt7__cxx1112basic_stringIcSt11char_traitsIcESaIcEE11_M_is_localEv.exit.thread.i.i7, %_ZNKSt7__cxx1112basic_stringIcSt11char_traitsIcESaIcEE11_M_is_localEv.exit.i.i6
  ret void
}